; ModuleID = '2/210.c'
source_filename = "2/210.c"
target datalayout = "e-m:e-p270:32:32-p271:32:32-p272:64:64-i64:64-f80:128-n8:16:32:64-S128"
target triple = "x86_64-pc-linux-gnu"

%struct.books = type { [20 x i8], [26 x i8] }

@.str = private unnamed_addr constant [3 x i8] c"%d\00", align 1
@.str.1 = private unnamed_addr constant [6 x i8] c"%s %s\00", align 1
@.str.2 = private unnamed_addr constant [4 x i8] c"%c\0A\00", align 1
@.str.3 = private unnamed_addr constant [4 x i8] c"%d\0A\00", align 1
@.str.4 = private unnamed_addr constant [4 x i8] c"%s\0A\00", align 1

; Function Attrs: noinline nounwind uwtable
define dso_local i32 @main() #0 {
  %1 = alloca i32, align 4
  %2 = alloca i32, align 4
  %3 = alloca i32, align 4
  %4 = alloca i32, align 4
  %5 = alloca i32, align 4
  %6 = alloca [150 x i32], align 16
  %7 = alloca [1000 x %struct.books], align 16
  %8 = alloca i32, align 4
  %9 = alloca i32, align 4
  store i32 0, i32* %1, align 4
  %10 = bitcast [150 x i32]* %6 to i8*
  call void @llvm.memset.p0i8.i64(i8* align 16 %10, i8 0, i64 600, i1 false)
  %11 = call i32 (i8*, ...) @__isoc99_scanf(i8* getelementptr inbounds ([3 x i8], [3 x i8]* @.str, i64 0, i64 0), i32* %5)
  store i32 0, i32* %4, align 4
  br label %12

12:                                               ; preds = %56, %0
  %13 = load i32, i32* %4, align 4
  %14 = load i32, i32* %5, align 4
  %15 = icmp slt i32 %13, %14
  br i1 %15, label %16, label %59

16:                                               ; preds = %12
  %17 = load i32, i32* %4, align 4
  %18 = sext i32 %17 to i64
  %19 = getelementptr inbounds [1000 x %struct.books], [1000 x %struct.books]* %7, i64 0, i64 %18
  %20 = getelementptr inbounds %struct.books, %struct.books* %19, i32 0, i32 0
  %21 = getelementptr inbounds [20 x i8], [20 x i8]* %20, i64 0, i64 0
  %22 = load i32, i32* %4, align 4
  %23 = sext i32 %22 to i64
  %24 = getelementptr inbounds [1000 x %struct.books], [1000 x %struct.books]* %7, i64 0, i64 %23
  %25 = getelementptr inbounds %struct.books, %struct.books* %24, i32 0, i32 1
  %26 = getelementptr inbounds [26 x i8], [26 x i8]* %25, i64 0, i64 0
  %27 = call i32 (i8*, ...) @__isoc99_scanf(i8* getelementptr inbounds ([6 x i8], [6 x i8]* @.str.1, i64 0, i64 0), i8* %21, i8* %26)
  store i32 0, i32* %3, align 4
  br label %28

28:                                               ; preds = %52, %16
  %29 = load i32, i32* %4, align 4
  %30 = sext i32 %29 to i64
  %31 = getelementptr inbounds [1000 x %struct.books], [1000 x %struct.books]* %7, i64 0, i64 %30
  %32 = getelementptr inbounds %struct.books, %struct.books* %31, i32 0, i32 1
  %33 = load i32, i32* %3, align 4
  %34 = sext i32 %33 to i64
  %35 = getelementptr inbounds [26 x i8], [26 x i8]* %32, i64 0, i64 %34
  %36 = load i8, i8* %35, align 1
  %37 = sext i8 %36 to i32
  %38 = icmp ne i32 %37, 0
  br i1 %38, label %39, label %55

39:                                               ; preds = %28
  %40 = load i32, i32* %4, align 4
  %41 = sext i32 %40 to i64
  %42 = getelementptr inbounds [1000 x %struct.books], [1000 x %struct.books]* %7, i64 0, i64 %41
  %43 = getelementptr inbounds %struct.books, %struct.books* %42, i32 0, i32 1
  %44 = load i32, i32* %3, align 4
  %45 = sext i32 %44 to i64
  %46 = getelementptr inbounds [26 x i8], [26 x i8]* %43, i64 0, i64 %45
  %47 = load i8, i8* %46, align 1
  %48 = sext i8 %47 to i64
  %49 = getelementptr inbounds [150 x i32], [150 x i32]* %6, i64 0, i64 %48
  %50 = load i32, i32* %49, align 4
  %51 = add nsw i32 %50, 1
  store i32 %51, i32* %49, align 4
  br label %52

52:                                               ; preds = %39
  %53 = load i32, i32* %3, align 4
  %54 = add nsw i32 %53, 1
  store i32 %54, i32* %3, align 4
  br label %28

55:                                               ; preds = %28
  br label %56

56:                                               ; preds = %55
  %57 = load i32, i32* %4, align 4
  %58 = add nsw i32 %57, 1
  store i32 %58, i32* %4, align 4
  br label %12

59:                                               ; preds = %12
  store i32 0, i32* %8, align 4
  store i32 65, i32* %4, align 4
  store i32 0, i32* %3, align 4
  br label %60

60:                                               ; preds = %77, %59
  %61 = load i32, i32* %4, align 4
  %62 = icmp sle i32 %61, 90
  br i1 %62, label %63, label %80

63:                                               ; preds = %60
  %64 = load i32, i32* %8, align 4
  %65 = load i32, i32* %4, align 4
  %66 = sext i32 %65 to i64
  %67 = getelementptr inbounds [150 x i32], [150 x i32]* %6, i64 0, i64 %66
  %68 = load i32, i32* %67, align 4
  %69 = icmp slt i32 %64, %68
  br i1 %69, label %70, label %76

70:                                               ; preds = %63
  %71 = load i32, i32* %4, align 4
  %72 = sext i32 %71 to i64
  %73 = getelementptr inbounds [150 x i32], [150 x i32]* %6, i64 0, i64 %72
  %74 = load i32, i32* %73, align 4
  store i32 %74, i32* %8, align 4
  %75 = load i32, i32* %4, align 4
  store i32 %75, i32* %3, align 4
  br label %76

76:                                               ; preds = %70, %63
  br label %77

77:                                               ; preds = %76
  %78 = load i32, i32* %4, align 4
  %79 = add nsw i32 %78, 1
  store i32 %79, i32* %4, align 4
  br label %60

80:                                               ; preds = %60
  %81 = load i32, i32* %3, align 4
  %82 = call i32 (i8*, ...) @printf(i8* getelementptr inbounds ([4 x i8], [4 x i8]* @.str.2, i64 0, i64 0), i32 %81)
  %83 = load i32, i32* %8, align 4
  %84 = call i32 (i8*, ...) @printf(i8* getelementptr inbounds ([4 x i8], [4 x i8]* @.str.3, i64 0, i64 0), i32 %83)
  store i32 0, i32* %9, align 4
  store i32 0, i32* %4, align 4
  br label %85

85:                                               ; preds = %129, %80
  %86 = load i32, i32* %4, align 4
  %87 = load i32, i32* %5, align 4
  %88 = icmp slt i32 %86, %87
  br i1 %88, label %89, label %132

89:                                               ; preds = %85
  store i32 0, i32* %9, align 4
  store i32 0, i32* %2, align 4
  br label %90

90:                                               ; preds = %115, %89
  %91 = load i32, i32* %4, align 4
  %92 = sext i32 %91 to i64
  %93 = getelementptr inbounds [1000 x %struct.books], [1000 x %struct.books]* %7, i64 0, i64 %92
  %94 = getelementptr inbounds %struct.books, %struct.books* %93, i32 0, i32 1
  %95 = load i32, i32* %2, align 4
  %96 = sext i32 %95 to i64
  %97 = getelementptr inbounds [26 x i8], [26 x i8]* %94, i64 0, i64 %96
  %98 = load i8, i8* %97, align 1
  %99 = sext i8 %98 to i32
  %100 = icmp ne i32 %99, 0
  br i1 %100, label %101, label %118

101:                                              ; preds = %90
  %102 = load i32, i32* %4, align 4
  %103 = sext i32 %102 to i64
  %104 = getelementptr inbounds [1000 x %struct.books], [1000 x %struct.books]* %7, i64 0, i64 %103
  %105 = getelementptr inbounds %struct.books, %struct.books* %104, i32 0, i32 1
  %106 = load i32, i32* %2, align 4
  %107 = sext i32 %106 to i64
  %108 = getelementptr inbounds [26 x i8], [26 x i8]* %105, i64 0, i64 %107
  %109 = load i8, i8* %108, align 1
  %110 = sext i8 %109 to i32
  %111 = load i32, i32* %3, align 4
  %112 = icmp eq i32 %110, %111
  br i1 %112, label %113, label %114

113:                                              ; preds = %101
  store i32 1, i32* %9, align 4
  br label %114

114:                                              ; preds = %113, %101
  br label %115

115:                                              ; preds = %114
  %116 = load i32, i32* %2, align 4
  %117 = add nsw i32 %116, 1
  store i32 %117, i32* %2, align 4
  br label %90

118:                                              ; preds = %90
  %119 = load i32, i32* %9, align 4
  %120 = icmp eq i32 %119, 1
  br i1 %120, label %121, label %128

121:                                              ; preds = %118
  %122 = load i32, i32* %4, align 4
  %123 = sext i32 %122 to i64
  %124 = getelementptr inbounds [1000 x %struct.books], [1000 x %struct.books]* %7, i64 0, i64 %123
  %125 = getelementptr inbounds %struct.books, %struct.books* %124, i32 0, i32 0
  %126 = getelementptr inbounds [20 x i8], [20 x i8]* %125, i64 0, i64 0
  %127 = call i32 (i8*, ...) @printf(i8* getelementptr inbounds ([4 x i8], [4 x i8]* @.str.4, i64 0, i64 0), i8* %126)
  br label %128

128:                                              ; preds = %121, %118
  br label %129

129:                                              ; preds = %128
  %130 = load i32, i32* %4, align 4
  %131 = add nsw i32 %130, 1
  store i32 %131, i32* %4, align 4
  br label %85

132:                                              ; preds = %85
  %133 = load i32, i32* %1, align 4
  ret i32 %133
}

; Function Attrs: argmemonly nounwind willreturn
declare void @llvm.memset.p0i8.i64(i8* nocapture writeonly, i8, i64, i1 immarg) #1

declare dso_local i32 @__isoc99_scanf(i8*, ...) #2

declare dso_local i32 @printf(i8*, ...) #2


!llvm.module.flags = !{!0}
!llvm.ident = !{!1}

!0 = !{i32 1, !"wchar_size", i32 4}
!1 = !{!"clang version 10.0.0-4ubuntu1 "}
